; Function Attrs: mustprogress uwtable
define hidden void @_ZN6google8protobuf8internal15SwapFieldHelper18SwapArenaStringPtrEPNS1_14ArenaStringPtrEPNS0_5ArenaES4_S6_(ptr noundef %lhs, ptr noundef %lhs_arena, ptr noundef %rhs, ptr noundef %rhs_arena) local_unnamed_addr #4 align 2 personality ptr @__gxx_personality_v0 {
entry:
  %temp = alloca %"class.std::__cxx11::basic_string", align 8
  %cmp = icmp eq ptr %lhs_arena, %rhs_arena
  br i1 %cmp, label %if.then, label %if.else

if.then:                                          ; preds = %entry
  %__tmp.sroa.0.0.copyload.i = load ptr, ptr %rhs, align 8
  %0 = load i64, ptr %lhs, align 8
  store i64 %0, ptr %rhs, align 8
  store ptr %__tmp.sroa.0.0.copyload.i, ptr %lhs, align 8
  br label %if.end18

if.else:                                          ; preds = %entry
  %1 = load ptr, ptr %lhs, align 8
  %2 = ptrtoint ptr %1 to i64
  %and.i.i = and i64 %2, 3
  %cmp.i.i = icmp eq i64 %and.i.i, 0
  %3 = load ptr, ptr %rhs, align 8
  %4 = ptrtoint ptr %3 to i64
  %and.i.i22 = and i64 %4, 3
  %cmp.i.i23 = icmp eq i64 %and.i.i22, 0
  br i1 %cmp.i.i, label %land.lhs.true, label %if.else7

land.lhs.true:                                    ; preds = %if.else
  br i1 %cmp.i.i23, label %if.end18, label %if.then5

if.then5:                                         ; preds = %land.lhs.true
  %and.i = and i64 %4, -4
  %5 = inttoptr i64 %and.i to ptr
  tail call void @_ZN6google8protobuf8internal14ArenaStringPtr3SetIJEEEvRKNSt7__cxx1112basic_stringIcSt11char_traitsIcESaIcEEEPNS0_5ArenaE(ptr noundef nonnull align 8 dereferenceable(8) %lhs, ptr noundef nonnull align 8 dereferenceable(32) %5, ptr noundef %lhs_arena)
  tail call void @_ZN6google8protobuf8internal14ArenaStringPtr7DestroyEv(ptr noundef nonnull align 8 dereferenceable(8) %rhs)
  store i64 ptrtoint (ptr @_ZN6google8protobuf8internal26fixed_address_empty_stringB5cxx11E to i64), ptr %rhs, align 8
  br label %if.end18

if.else7:                                         ; preds = %if.else
  %and.i28 = and i64 %2, -4
  %6 = inttoptr i64 %and.i28 to ptr
  br i1 %cmp.i.i23, label %if.then9, label %if.else11

if.then9:                                         ; preds = %if.else7
  tail call void @_ZN6google8protobuf8internal14ArenaStringPtr3SetIJEEEvRKNSt7__cxx1112basic_stringIcSt11char_traitsIcESaIcEEEPNS0_5ArenaE(ptr noundef nonnull align 8 dereferenceable(8) %rhs, ptr noundef nonnull align 8 dereferenceable(32) %6, ptr noundef %rhs_arena)
  tail call void @_ZN6google8protobuf8internal14ArenaStringPtr7DestroyEv(ptr noundef nonnull align 8 dereferenceable(8) %lhs)
  store i64 ptrtoint (ptr @_ZN6google8protobuf8internal26fixed_address_empty_stringB5cxx11E to i64), ptr %lhs, align 8
  br label %if.end18

if.else11:                                        ; preds = %if.else7
  call void @_ZNSt7__cxx1112basic_stringIcSt11char_traitsIcESaIcEEC1ERKS4_(ptr noundef nonnull align 8 dereferenceable(32) %temp, ptr noundef nonnull align 8 dereferenceable(32) %6)
  %7 = load ptr, ptr %rhs, align 8
  %8 = ptrtoint ptr %7 to i64
  %and.i30 = and i64 %8, -4
  %9 = inttoptr i64 %and.i30 to ptr
  invoke void @_ZN6google8protobuf8internal14ArenaStringPtr3SetIJEEEvRKNSt7__cxx1112basic_stringIcSt11char_traitsIcESaIcEEEPNS0_5ArenaE(ptr noundef nonnull align 8 dereferenceable(8) %lhs, ptr noundef nonnull align 8 dereferenceable(32) %9, ptr noundef %lhs_arena)
          to label %invoke.cont14 unwind label %lpad

invoke.cont14:                                    ; preds = %if.else11
  invoke void @_ZN6google8protobuf8internal14ArenaStringPtr3SetEONSt7__cxx1112basic_stringIcSt11char_traitsIcESaIcEEEPNS0_5ArenaE(ptr noundef nonnull align 8 dereferenceable(8) %rhs, ptr noundef nonnull align 8 dereferenceable(32) %temp, ptr noundef %rhs_arena)
          to label %invoke.cont15 unwind label %lpad

invoke.cont15:                                    ; preds = %invoke.cont14
  call void @_ZNSt7__cxx1112basic_stringIcSt11char_traitsIcESaIcEED1Ev(ptr noundef nonnull align 8 dereferenceable(32) %temp) #29
  br label %if.end18

lpad:                                             ; preds = %invoke.cont14, %if.else11
  %10 = landingpad { ptr, i32 }
          cleanup
  call void @_ZNSt7__cxx1112basic_stringIcSt11char_traitsIcESaIcEED1Ev(ptr noundef nonnull align 8 dereferenceable(32) %temp) #29
  resume { ptr, i32 } %10

if.end18:                                         ; preds = %land.lhs.true, %if.then9, %invoke.cont15, %if.then5, %if.then
  ret void
}